Certificate:
    Data:
        Version: 3 (0x2)
        Serial Number:
            d1:cb:2f:ec:70:9d:29:c7
        Signature Algorithm: sha1WithRSAEncryption
        Issuer: C=at, ST=Upper Austria, L=Linz, O=VJF, CN=Certification Authority Certificate
        Validity
            Not Before: Nov 28 15:05:15 2012 GMT
            Not After : Jul 27 01:28:21 2022 GMT
        Subject: C=at, ST=Upper Austria, L=Linz, O=VJF, CN=vpn-Einrichtungen-riff
        Subject Public Key Info:
            Public Key Algorithm: rsaEncryption
            RSA Public Key: (1024 bit)
                Modulus (1024 bit):
                    00:cd:56:a7:23:98:b7:c9:49:8b:5d:fc:cf:1f:8e:
                    2c:1e:80:e2:16:88:c2:c5:85:a4:e3:c8:30:05:36:
                    0f:60:84:87:cc:af:37:26:40:08:aa:1f:81:71:11:
                    1f:c4:9c:b2:b9:b4:be:7c:1a:8f:81:3d:c5:bc:c9:
                    a8:a5:7b:34:8c:78:7a:b2:8f:ef:b0:83:24:65:da:
                    49:99:36:8d:a9:7a:67:69:74:d2:a8:d9:21:d9:3e:
                    97:53:26:2a:b5:9f:0c:95:f9:d4:c9:28:c7:53:3a:
                    00:f2:3a:4c:09:29:a9:bc:f0:39:4f:4c:c2:57:27:
                    a6:86:ad:d0:09:39:eb:1c:3b
                Exponent: 65537 (0x10001)
        X509v3 extensions:
            X509v3 Authority Key Identifier: 
                keyid:B8:45:E4:92:98:AD:02:9C:FD:10:8B:4A:D8:2D:AA:06:D9:5F:49:AA

            X509v3 Subject Key Identifier: 
                7B:09:13:61:1A:53:7F:D5:B1:04:48:58:28:82:E5:C7:10:52:C7:17
            Netscape Comment: 
                OpenSSL Generated Certificate
            X509v3 Basic Constraints: 
                CA:FALSE
    Signature Algorithm: sha1WithRSAEncryption
        2d:8e:b0:08:ef:25:f5:5a:9f:b4:7c:c2:69:cd:98:5a:be:f1:
        79:f4:08:71:50:e9:86:ed:3d:39:d6:06:82:51:0a:cd:57:bd:
        d3:4a:37:e5:9d:b7:54:fb:80:7a:00:d4:89:99:d6:25:59:63:
        40:8b:ab:18:91:ad:c1:bb:fe:5c:8c:19:70:c1:72:db:d4:e0:
        6e:9a:af:eb:f3:79:b8:9e:df:8c:2e:73:ec:e6:a6:cc:f4:b4:
        a4:4c:fd:5b:96:67:8c:85:32:ae:18:a2:63:18:20:f0:56:54:
        3f:e7:99:c4:b2:cc:ae:0f:bf:b6:0f:ff:25:e0:d0:8d:55:d0:
        b0:1b
-----BEGIN CERTIFICATE-----
MIICzDCCAjWgAwIBAgIJANHLL+xwnSnHMA0GCSqGSIb3DQEBBQUAMHAxCzAJBgNV
BAYTAmF0MRYwFAYDVQQIEw1VcHBlciBBdXN0cmlhMQ0wCwYDVQQHEwRMaW56MQww
CgYDVQQKEwNWSkYxLDAqBgNVBAMTI0NlcnRpZmljYXRpb24gQXV0aG9yaXR5IENl
cnRpZmljYXRlMB4XDTEyMTEyODE1MDUxNVoXDTIyMDcyNzAxMjgyMVowYzELMAkG
A1UEBhMCYXQxFjAUBgNVBAgTDVVwcGVyIEF1c3RyaWExDTALBgNVBAcTBExpbnox
DDAKBgNVBAoTA1ZKRjEfMB0GA1UEAxMWdnBuLUVpbnJpY2h0dW5nZW4tcmlmZjCB
nzANBgkqhkiG9w0BAQEFAAOBjQAwgYkCgYEAzVanI5i3yUmLXfzPH44sHoDiFojC
xYWk48gwBTYPYISHzK83JkAIqh+BcREfxJyyubS+fBqPgT3FvMmopXs0jHh6so/v
sIMkZdpJmTaNqXpnaXTSqNkh2T6XUyYqtZ8MlfnUySjHUzoA8jpMCSmpvPA5T0zC
Vyemhq3QCTnrHDsCAwEAAaN7MHkwHwYDVR0jBBgwFoAUuEXkkpitApz9EItK2C2q
BtlfSaowHQYDVR0OBBYEFHsJE2EaU3/VsQRIWCiC5ccQUscXMCwGCWCGSAGG+EIB
DQQfFh1PcGVuU1NMIEdlbmVyYXRlZCBDZXJ0aWZpY2F0ZTAJBgNVHRMEAjAAMA0G
CSqGSIb3DQEBBQUAA4GBAC2OsAjvJfVan7R8wmnNmFq+8Xn0CHFQ6YbtPTnWBoJR
Cs1XvdNKN+Wdt1T7gHoA1ImZ1iVZY0CLqxiRrcG7/lyMGXDBctvU4G6ar+vzebie
34wuc+zmpsz0tKRM/VuWZ4yFMq4YomMYIPBWVD/nmcSyzK4Pv7YP/yXg0I1V0LAb
-----END CERTIFICATE-----
